target datalayout = "e-m:e-p270:32:32-p271:32:32-p272:64:64-i64:64-i128:128-f80:128-n8:16:32:64-S128"
target triple = "x86_64-pc-linux-gnu"

@.str.6 = private unnamed_addr constant [20 x i8] c"%s expected, got %s\00", align 1

; Function Attrs: nounwind uwtable
define dso_local i32 @luaL_typerror(ptr noundef %0, i32 noundef %1, ptr noundef %2) #0 {
  %4 = alloca ptr, align 8
  %5 = alloca i32, align 4
  %6 = alloca ptr, align 8
  %7 = alloca ptr, align 8
  store ptr %0, ptr %4, align 8, !tbaa !4
  store i32 %1, ptr %5, align 4, !tbaa !9
  store ptr %2, ptr %6, align 8, !tbaa !11
  call void @llvm.lifetime.start.p0(i64 8, ptr %7) #9
  %8 = load ptr, ptr %4, align 8, !tbaa !4
  %9 = load ptr, ptr %6, align 8, !tbaa !11
  %10 = load ptr, ptr %4, align 8, !tbaa !4
  %11 = load ptr, ptr %4, align 8, !tbaa !4
  %12 = load i32, ptr %5, align 4, !tbaa !9
  %13 = call i32 @lua_type(ptr noundef %11, i32 noundef %12)
  %14 = call ptr @lua_typename(ptr noundef %10, i32 noundef %13)
  %15 = call ptr (ptr, ptr, ...) @lua_pushfstring(ptr noundef %8, ptr noundef @.str.6, ptr noundef %9, ptr noundef %14)
  store ptr %15, ptr %7, align 8, !tbaa !11
  %16 = load ptr, ptr %4, align 8, !tbaa !4
  %17 = load i32, ptr %5, align 4, !tbaa !9
  %18 = load ptr, ptr %7, align 8, !tbaa !11
  %19 = call i32 @luaL_argerror(ptr noundef %16, i32 noundef %17, ptr noundef %18)
  call void @llvm.lifetime.end.p0(i64 8, ptr %7) #9
  ret i32 %19
}

; Function Attrs: nounwind uwtable
define internal void @tag_error(ptr noundef %0, i32 noundef %1, i32 noundef %2) #0 {
  %4 = alloca ptr, align 8
  %5 = alloca i32, align 4
  %6 = alloca i32, align 4
  store ptr %0, ptr %4, align 8, !tbaa !4
  store i32 %1, ptr %5, align 4, !tbaa !9
  store i32 %2, ptr %6, align 4, !tbaa !9
  %7 = load ptr, ptr %4, align 8, !tbaa !4
  %8 = load i32, ptr %5, align 4, !tbaa !9
  %9 = load ptr, ptr %4, align 8, !tbaa !4
  %10 = load i32, ptr %6, align 4, !tbaa !9
  %11 = call ptr @lua_typename(ptr noundef %9, i32 noundef %10)
  %12 = call i32 @luaL_typerror(ptr noundef %7, i32 noundef %8, ptr noundef %11)
  ret void
}

; Function Attrs: nounwind uwtable
define dso_local i64 @luaL_checkinteger(ptr noundef %0, i32 noundef %1) #0 {
  %3 = alloca ptr, align 8
  %4 = alloca i32, align 4
  %5 = alloca i64, align 8
  store ptr %0, ptr %3, align 8, !tbaa !4
  store i32 %1, ptr %4, align 4, !tbaa !9
  call void @llvm.lifetime.start.p0(i64 8, ptr %5) #9
  %6 = load ptr, ptr %3, align 8, !tbaa !4
  %7 = load i32, ptr %4, align 4, !tbaa !9
  %8 = call i64 @lua_tointeger(ptr noundef %6, i32 noundef %7)
  store i64 %8, ptr %5, align 8, !tbaa !23
  %9 = load i64, ptr %5, align 8, !tbaa !23
  %10 = icmp eq i64 %9, 0
  br i1 %10, label %11, label %19

11:                                               ; preds = %2
  %12 = load ptr, ptr %3, align 8, !tbaa !4
  %13 = load i32, ptr %4, align 4, !tbaa !9
  %14 = call i32 @lua_isnumber(ptr noundef %12, i32 noundef %13)
  %15 = icmp ne i32 %14, 0
  br i1 %15, label %19, label %16

16:                                               ; preds = %11
  %17 = load ptr, ptr %3, align 8, !tbaa !4
  %18 = load i32, ptr %4, align 4, !tbaa !9
  call void @tag_error(ptr noundef %17, i32 noundef %18, i32 noundef 3)
  br label %19

19:                                               ; preds = %16, %11, %2
  %20 = load i64, ptr %5, align 8, !tbaa !23
  call void @llvm.lifetime.end.p0(i64 8, ptr %5) #9
  ret i64 %20
}