; Function Attrs: nounwind uwtable
define dso_local i64 @luaL_checkinteger(ptr noundef %0, i32 noundef %1) local_unnamed_addr #0 {
  %3 = tail call i64 @lua_tointeger(ptr noundef %0, i32 noundef %1) #17
  %4 = icmp eq i64 %3, 0
  br i1 %4, label %5, label %13

5:                                                ; preds = %2
  %6 = tail call i32 @lua_isnumber(ptr noundef %0, i32 noundef %1) #17
  %.not = icmp eq i32 %6, 0
  br i1 %.not, label %7, label %13

7:                                                ; preds = %5
  %8 = tail call ptr @lua_typename(ptr noundef %0, i32 noundef 3) #17
  %9 = tail call i32 @lua_type(ptr noundef %0, i32 noundef %1) #17
  %10 = tail call ptr @lua_typename(ptr noundef %0, i32 noundef %9) #17
  %11 = tail call ptr (ptr, ptr, ...) @lua_pushfstring(ptr noundef %0, ptr noundef nonnull @.str.6, ptr noundef %8, ptr noundef %10) #17
  %12 = tail call i32 @luaL_argerror(ptr noundef %0, i32 noundef %1, ptr noundef %11)
  br label %13

13:                                               ; preds = %7, %5, %2
  ret i64 %3
}